; ModuleID = '53/1537.c'
source_filename = "53/1537.c"
target datalayout = "e-m:e-p270:32:32-p271:32:32-p272:64:64-i64:64-f80:128-n8:16:32:64-S128"
target triple = "x86_64-pc-linux-gnu"

@.str = private unnamed_addr constant [3 x i8] c"%d\00", align 1
@.str.1 = private unnamed_addr constant [4 x i8] c"%d,\00", align 1

; Function Attrs: noinline nounwind uwtable
define dso_local i32 @main() #0 {
  %1 = alloca i32, align 4
  %2 = alloca i32, align 4
  %3 = alloca i32, align 4
  %4 = alloca i32, align 4
  %5 = alloca i32, align 4
  %6 = alloca [400 x i32], align 16
  %7 = alloca [400 x i32], align 16
  %8 = alloca [400 x i32], align 16
  store i32 0, i32* %1, align 4
  store i32 0, i32* %4, align 4
  store i32 0, i32* %3, align 4
  br label %9

9:                                                ; preds = %22, %0
  %10 = load i32, i32* %3, align 4
  %11 = icmp slt i32 %10, 400
  br i1 %11, label %12, label %25

12:                                               ; preds = %9
  %13 = load i32, i32* %3, align 4
  %14 = sext i32 %13 to i64
  %15 = getelementptr inbounds [400 x i32], [400 x i32]* %6, i64 0, i64 %14
  store i32 0, i32* %15, align 4
  %16 = load i32, i32* %3, align 4
  %17 = sext i32 %16 to i64
  %18 = getelementptr inbounds [400 x i32], [400 x i32]* %7, i64 0, i64 %17
  store i32 0, i32* %18, align 4
  %19 = load i32, i32* %3, align 4
  %20 = sext i32 %19 to i64
  %21 = getelementptr inbounds [400 x i32], [400 x i32]* %8, i64 0, i64 %20
  store i32 0, i32* %21, align 4
  br label %22

22:                                               ; preds = %12
  %23 = load i32, i32* %3, align 4
  %24 = add nsw i32 %23, 1
  store i32 %24, i32* %3, align 4
  br label %9

25:                                               ; preds = %9
  %26 = call i32 (i8*, ...) @__isoc99_scanf(i8* getelementptr inbounds ([3 x i8], [3 x i8]* @.str, i64 0, i64 0), i32* %2)
  store i32 0, i32* %3, align 4
  br label %27

27:                                               ; preds = %39, %25
  %28 = load i32, i32* %3, align 4
  %29 = load i32, i32* %2, align 4
  %30 = icmp slt i32 %28, %29
  br i1 %30, label %31, label %42

31:                                               ; preds = %27
  %32 = load i32, i32* %3, align 4
  %33 = sext i32 %32 to i64
  %34 = getelementptr inbounds [400 x i32], [400 x i32]* %6, i64 0, i64 %33
  %35 = call i32 (i8*, ...) @__isoc99_scanf(i8* getelementptr inbounds ([3 x i8], [3 x i8]* @.str, i64 0, i64 0), i32* %34)
  %36 = load i32, i32* %3, align 4
  %37 = sext i32 %36 to i64
  %38 = getelementptr inbounds [400 x i32], [400 x i32]* %7, i64 0, i64 %37
  store i32 1, i32* %38, align 4
  br label %39

39:                                               ; preds = %31
  %40 = load i32, i32* %3, align 4
  %41 = add nsw i32 %40, 1
  store i32 %41, i32* %3, align 4
  br label %27

42:                                               ; preds = %27
  store i32 0, i32* %3, align 4
  br label %43

43:                                               ; preds = %88, %42
  %44 = load i32, i32* %3, align 4
  %45 = load i32, i32* %2, align 4
  %46 = icmp slt i32 %44, %45
  br i1 %46, label %47, label %91

47:                                               ; preds = %43
  %48 = load i32, i32* %3, align 4
  %49 = sext i32 %48 to i64
  %50 = getelementptr inbounds [400 x i32], [400 x i32]* %7, i64 0, i64 %49
  %51 = load i32, i32* %50, align 4
  %52 = icmp ne i32 %51, 0
  br i1 %52, label %53, label %87

53:                                               ; preds = %47
  %54 = load i32, i32* %3, align 4
  %55 = sext i32 %54 to i64
  %56 = getelementptr inbounds [400 x i32], [400 x i32]* %6, i64 0, i64 %55
  %57 = load i32, i32* %56, align 4
  %58 = load i32, i32* %4, align 4
  %59 = sext i32 %58 to i64
  %60 = getelementptr inbounds [400 x i32], [400 x i32]* %8, i64 0, i64 %59
  store i32 %57, i32* %60, align 4
  %61 = load i32, i32* %3, align 4
  store i32 %61, i32* %5, align 4
  br label %62

62:                                               ; preds = %81, %53
  %63 = load i32, i32* %5, align 4
  %64 = load i32, i32* %2, align 4
  %65 = icmp slt i32 %63, %64
  br i1 %65, label %66, label %84

66:                                               ; preds = %62
  %67 = load i32, i32* %5, align 4
  %68 = sext i32 %67 to i64
  %69 = getelementptr inbounds [400 x i32], [400 x i32]* %6, i64 0, i64 %68
  %70 = load i32, i32* %69, align 4
  %71 = load i32, i32* %4, align 4
  %72 = sext i32 %71 to i64
  %73 = getelementptr inbounds [400 x i32], [400 x i32]* %8, i64 0, i64 %72
  %74 = load i32, i32* %73, align 4
  %75 = icmp eq i32 %70, %74
  br i1 %75, label %76, label %80

76:                                               ; preds = %66
  %77 = load i32, i32* %5, align 4
  %78 = sext i32 %77 to i64
  %79 = getelementptr inbounds [400 x i32], [400 x i32]* %7, i64 0, i64 %78
  store i32 0, i32* %79, align 4
  br label %80

80:                                               ; preds = %76, %66
  br label %81

81:                                               ; preds = %80
  %82 = load i32, i32* %5, align 4
  %83 = add nsw i32 %82, 1
  store i32 %83, i32* %5, align 4
  br label %62

84:                                               ; preds = %62
  %85 = load i32, i32* %4, align 4
  %86 = add nsw i32 %85, 1
  store i32 %86, i32* %4, align 4
  br label %87

87:                                               ; preds = %84, %47
  br label %88

88:                                               ; preds = %87
  %89 = load i32, i32* %3, align 4
  %90 = add nsw i32 %89, 1
  store i32 %90, i32* %3, align 4
  br label %43

91:                                               ; preds = %43
  %92 = load i32, i32* %4, align 4
  %93 = icmp sgt i32 %92, 1
  br i1 %93, label %94, label %110

94:                                               ; preds = %91
  store i32 0, i32* %3, align 4
  br label %95

95:                                               ; preds = %106, %94
  %96 = load i32, i32* %3, align 4
  %97 = load i32, i32* %4, align 4
  %98 = sub nsw i32 %97, 1
  %99 = icmp slt i32 %96, %98
  br i1 %99, label %100, label %109

100:                                              ; preds = %95
  %101 = load i32, i32* %3, align 4
  %102 = sext i32 %101 to i64
  %103 = getelementptr inbounds [400 x i32], [400 x i32]* %8, i64 0, i64 %102
  %104 = load i32, i32* %103, align 4
  %105 = call i32 (i8*, ...) @printf(i8* getelementptr inbounds ([4 x i8], [4 x i8]* @.str.1, i64 0, i64 0), i32 %104)
  br label %106

106:                                              ; preds = %100
  %107 = load i32, i32* %3, align 4
  %108 = add nsw i32 %107, 1
  store i32 %108, i32* %3, align 4
  br label %95

109:                                              ; preds = %95
  br label %110

110:                                              ; preds = %109, %91
  %111 = load i32, i32* %4, align 4
  %112 = sub nsw i32 %111, 1
  %113 = sext i32 %112 to i64
  %114 = getelementptr inbounds [400 x i32], [400 x i32]* %8, i64 0, i64 %113
  %115 = load i32, i32* %114, align 4
  %116 = call i32 (i8*, ...) @printf(i8* getelementptr inbounds ([3 x i8], [3 x i8]* @.str, i64 0, i64 0), i32 %115)
  ret i32 0
}

declare dso_local i32 @__isoc99_scanf(i8*, ...) #1

declare dso_local i32 @printf(i8*, ...) #1


!llvm.module.flags = !{!0}
!llvm.ident = !{!1}

!0 = !{i32 1, !"wchar_size", i32 4}
!1 = !{!"clang version 10.0.0-4ubuntu1 "}
